; Function Attrs: mustprogress nofree nounwind willreturn memory(read, inaccessiblemem: none) uwtable
define dso_local noundef zeroext i1 @_ZNK4Luau25ModuleHasCyclicDependencyeqERKS0_(ptr noundef nonnull readonly align 8 captures(none) dereferenceable(24) %0, ptr noundef nonnull readonly align 8 captures(none) dereferenceable(24) %1) local_unnamed_addr #7 align 2 {
  %3 = getelementptr inbounds nuw i8, ptr %0, i64 8
  %4 = load ptr, ptr %3, align 8, !tbaa !151
  %5 = load ptr, ptr %0, align 8, !tbaa !154
  %6 = ptrtoint ptr %4 to i64
  %7 = ptrtoint ptr %5 to i64
  %8 = sub i64 %6, %7
  %9 = getelementptr inbounds nuw i8, ptr %1, i64 8
  %10 = load ptr, ptr %9, align 8, !tbaa !151
  %11 = load ptr, ptr %1, align 8, !tbaa !154
  %12 = ptrtoint ptr %10 to i64
  %13 = ptrtoint ptr %11 to i64
  %14 = sub i64 %12, %13
  %15 = icmp eq i64 %8, %14
  br i1 %15, label %16, label %_ZSt5equalIN9__gnu_cxx17__normal_iteratorIPKNSt7__cxx1112basic_stringIcSt11char_traitsIcESaIcEEESt6vectorIS7_SaIS7_EEEESD_EbT_SE_T0_.exit

16:                                               ; preds = %2
  %.not10.i.i.i.i = icmp eq ptr %5, %4
  br i1 %.not10.i.i.i.i, label %_ZSt5equalIN9__gnu_cxx17__normal_iteratorIPKNSt7__cxx1112basic_stringIcSt11char_traitsIcESaIcEEESt6vectorIS7_SaIS7_EEEESD_EbT_SE_T0_.exit, label %.lr.ph.i.i.i.i

.lr.ph.i.i.i.i:                                   ; preds = %16, %_ZSteqIcEN9__gnu_cxx11__enable_ifIXsr9__is_charIT_EE7__valueEbE6__typeERKNSt7__cxx1112basic_stringIS2_St11char_traitsIS2_ESaIS2_EEESC_.exit.thread.i.i.i.i
  %.012.i.i.i.i = phi ptr [ %28, %_ZSteqIcEN9__gnu_cxx11__enable_ifIXsr9__is_charIT_EE7__valueEbE6__typeERKNSt7__cxx1112basic_stringIS2_St11char_traitsIS2_ESaIS2_EEESC_.exit.thread.i.i.i.i ], [ %11, %16 ]
  %.0811.i.i.i.i = phi ptr [ %27, %_ZSteqIcEN9__gnu_cxx11__enable_ifIXsr9__is_charIT_EE7__valueEbE6__typeERKNSt7__cxx1112basic_stringIS2_St11char_traitsIS2_ESaIS2_EEESC_.exit.thread.i.i.i.i ], [ %5, %16 ]
  %17 = getelementptr inbounds nuw i8, ptr %.0811.i.i.i.i, i64 8
  %18 = load i64, ptr %17, align 8, !tbaa !23
  %19 = getelementptr inbounds nuw i8, ptr %.012.i.i.i.i, i64 8
  %20 = load i64, ptr %19, align 8, !tbaa !23
  %21 = icmp eq i64 %18, %20
  br i1 %21, label %22, label %_ZSt5equalIN9__gnu_cxx17__normal_iteratorIPKNSt7__cxx1112basic_stringIcSt11char_traitsIcESaIcEEESt6vectorIS7_SaIS7_EEEESD_EbT_SE_T0_.exit

22:                                               ; preds = %.lr.ph.i.i.i.i
  %23 = icmp eq i64 %18, 0
  br i1 %23, label %_ZSteqIcEN9__gnu_cxx11__enable_ifIXsr9__is_charIT_EE7__valueEbE6__typeERKNSt7__cxx1112basic_stringIS2_St11char_traitsIS2_ESaIS2_EEESC_.exit.thread.i.i.i.i, label %_ZSteqIcEN9__gnu_cxx11__enable_ifIXsr9__is_charIT_EE7__valueEbE6__typeERKNSt7__cxx1112basic_stringIS2_St11char_traitsIS2_ESaIS2_EEESC_.exit.i.i.i.i

_ZSteqIcEN9__gnu_cxx11__enable_ifIXsr9__is_charIT_EE7__valueEbE6__typeERKNSt7__cxx1112basic_stringIS2_St11char_traitsIS2_ESaIS2_EEESC_.exit.i.i.i.i: ; preds = %22
  %24 = load ptr, ptr %.012.i.i.i.i, align 8, !tbaa !19
  %25 = load ptr, ptr %.0811.i.i.i.i, align 8, !tbaa !19
  %bcmp.i.i.i.i.i = tail call i32 @bcmp(ptr %25, ptr %24, i64 %18)
  %26 = icmp eq i32 %bcmp.i.i.i.i.i, 0
  br i1 %26, label %_ZSteqIcEN9__gnu_cxx11__enable_ifIXsr9__is_charIT_EE7__valueEbE6__typeERKNSt7__cxx1112basic_stringIS2_St11char_traitsIS2_ESaIS2_EEESC_.exit.thread.i.i.i.i, label %_ZSt5equalIN9__gnu_cxx17__normal_iteratorIPKNSt7__cxx1112basic_stringIcSt11char_traitsIcESaIcEEESt6vectorIS7_SaIS7_EEEESD_EbT_SE_T0_.exit

_ZSteqIcEN9__gnu_cxx11__enable_ifIXsr9__is_charIT_EE7__valueEbE6__typeERKNSt7__cxx1112basic_stringIS2_St11char_traitsIS2_ESaIS2_EEESC_.exit.thread.i.i.i.i: ; preds = %_ZSteqIcEN9__gnu_cxx11__enable_ifIXsr9__is_charIT_EE7__valueEbE6__typeERKNSt7__cxx1112basic_stringIS2_St11char_traitsIS2_ESaIS2_EEESC_.exit.i.i.i.i, %22
  %27 = getelementptr inbounds nuw i8, ptr %.0811.i.i.i.i, i64 32
  %28 = getelementptr inbounds nuw i8, ptr %.012.i.i.i.i, i64 32
  %.not.i.i.i.i = icmp eq ptr %27, %4
  br i1 %.not.i.i.i.i, label %_ZSt5equalIN9__gnu_cxx17__normal_iteratorIPKNSt7__cxx1112basic_stringIcSt11char_traitsIcESaIcEEESt6vectorIS7_SaIS7_EEEESD_EbT_SE_T0_.exit, label %.lr.ph.i.i.i.i, !llvm.loop !155

_ZSt5equalIN9__gnu_cxx17__normal_iteratorIPKNSt7__cxx1112basic_stringIcSt11char_traitsIcESaIcEEESt6vectorIS7_SaIS7_EEEESD_EbT_SE_T0_.exit: ; preds = %_ZSteqIcEN9__gnu_cxx11__enable_ifIXsr9__is_charIT_EE7__valueEbE6__typeERKNSt7__cxx1112basic_stringIS2_St11char_traitsIS2_ESaIS2_EEESC_.exit.thread.i.i.i.i, %_ZSteqIcEN9__gnu_cxx11__enable_ifIXsr9__is_charIT_EE7__valueEbE6__typeERKNSt7__cxx1112basic_stringIS2_St11char_traitsIS2_ESaIS2_EEESC_.exit.i.i.i.i, %.lr.ph.i.i.i.i, %16, %2
  %29 = phi i1 [ false, %2 ], [ true, %16 ], [ false, %.lr.ph.i.i.i.i ], [ true, %_ZSteqIcEN9__gnu_cxx11__enable_ifIXsr9__is_charIT_EE7__valueEbE6__typeERKNSt7__cxx1112basic_stringIS2_St11char_traitsIS2_ESaIS2_EEESC_.exit.thread.i.i.i.i ], [ false, %_ZSteqIcEN9__gnu_cxx11__enable_ifIXsr9__is_charIT_EE7__valueEbE6__typeERKNSt7__cxx1112basic_stringIS2_St11char_traitsIS2_ESaIS2_EEESC_.exit.i.i.i.i ]
  ret i1 %29
}